target datalayout = "e-m:e-p270:32:32-p271:32:32-p272:64:64-i64:64-i128:128-f80:128-n8:16:32:64-S128"
target triple = "x86_64-pc-linux-gnu"

%struct.URLContext = type { ptr, ptr, ptr, ptr, i32, i32, i32, i32, %struct.AVIOInterruptCB, i64, ptr, ptr, i32 }
%struct.AVIOInterruptCB = type { ptr, ptr }
%struct.URLProtocol = type { ptr, ptr, ptr, ptr, ptr, ptr, ptr, ptr, ptr, ptr, ptr, ptr, ptr, ptr, ptr, ptr, i32, i32, ptr, ptr, ptr, ptr, ptr, ptr, ptr }

; Function Attrs: nounwind uwtable
define i32 @ffurl_close(ptr noundef %0) #1 {
  %2 = alloca ptr, align 8
  store ptr %0, ptr %2, align 8, !tbaa !22
  %3 = call i32 @ffurl_closep(ptr noundef %2)
  ret i32 %3
}

; Function Attrs: nounwind uwtable
define i32 @ffurl_move(ptr noundef %0, ptr noundef %1) #1 {
  %3 = alloca i32, align 4
  %4 = alloca ptr, align 8
  %5 = alloca ptr, align 8
  %6 = alloca ptr, align 8
  %7 = alloca ptr, align 8
  %8 = alloca i32, align 4
  %9 = alloca i32, align 4
  store ptr %0, ptr %4, align 8, !tbaa !20
  store ptr %1, ptr %5, align 8, !tbaa !20
  call void @llvm.lifetime.start.p0(i64 8, ptr %6) #10
  call void @llvm.lifetime.start.p0(i64 8, ptr %7) #10
  call void @llvm.lifetime.start.p0(i64 4, ptr %8) #10
  %10 = load ptr, ptr %4, align 8, !tbaa !20
  %11 = call i32 @ffurl_alloc(ptr noundef %6, ptr noundef %10, i32 noundef 3, ptr noundef null)
  store i32 %11, ptr %8, align 4, !tbaa !21
  %12 = load i32, ptr %8, align 4, !tbaa !21
  %13 = icmp slt i32 %12, 0
  br i1 %13, label %14, label %16

14:                                               ; preds = %2
  %15 = load i32, ptr %8, align 4, !tbaa !21
  store i32 %15, ptr %3, align 4
  store i32 1, ptr %9, align 4
  br label %56

16:                                               ; preds = %2
  %17 = load ptr, ptr %5, align 8, !tbaa !20
  %18 = call i32 @ffurl_alloc(ptr noundef %7, ptr noundef %17, i32 noundef 2, ptr noundef null)
  store i32 %18, ptr %8, align 4, !tbaa !21
  %19 = load i32, ptr %8, align 4, !tbaa !21
  %20 = icmp slt i32 %19, 0
  br i1 %20, label %21, label %25

21:                                               ; preds = %16
  %22 = load ptr, ptr %6, align 8, !tbaa !22
  %23 = call i32 @ffurl_close(ptr noundef %22)
  %24 = load i32, ptr %8, align 4, !tbaa !21
  store i32 %24, ptr %3, align 4
  store i32 1, ptr %9, align 4
  br label %56

25:                                               ; preds = %16
  %26 = load ptr, ptr %6, align 8, !tbaa !22
  %27 = getelementptr inbounds nuw %struct.URLContext, ptr %26, i32 0, i32 1
  %28 = load ptr, ptr %27, align 8, !tbaa !38
  %29 = load ptr, ptr %7, align 8, !tbaa !22
  %30 = getelementptr inbounds nuw %struct.URLContext, ptr %29, i32 0, i32 1
  %31 = load ptr, ptr %30, align 8, !tbaa !38
  %32 = icmp eq ptr %28, %31
  br i1 %32, label %33, label %49

33:                                               ; preds = %25
  %34 = load ptr, ptr %6, align 8, !tbaa !22
  %35 = getelementptr inbounds nuw %struct.URLContext, ptr %34, i32 0, i32 1
  %36 = load ptr, ptr %35, align 8, !tbaa !38
  %37 = getelementptr inbounds nuw %struct.URLProtocol, ptr %36, i32 0, i32 23
  %38 = load ptr, ptr %37, align 8, !tbaa !100
  %39 = icmp ne ptr %38, null
  br i1 %39, label %40, label %49

40:                                               ; preds = %33
  %41 = load ptr, ptr %6, align 8, !tbaa !22
  %42 = getelementptr inbounds nuw %struct.URLContext, ptr %41, i32 0, i32 1
  %43 = load ptr, ptr %42, align 8, !tbaa !38
  %44 = getelementptr inbounds nuw %struct.URLProtocol, ptr %43, i32 0, i32 23
  %45 = load ptr, ptr %44, align 8, !tbaa !100
  %46 = load ptr, ptr %6, align 8, !tbaa !22
  %47 = load ptr, ptr %7, align 8, !tbaa !22
  %48 = call i32 %45(ptr noundef %46, ptr noundef %47)
  store i32 %48, ptr %8, align 4, !tbaa !21
  br label %50

49:                                               ; preds = %33, %25
  store i32 -38, ptr %8, align 4, !tbaa !21
  br label %50

50:                                               ; preds = %49, %40
  %51 = load ptr, ptr %6, align 8, !tbaa !22
  %52 = call i32 @ffurl_close(ptr noundef %51)
  %53 = load ptr, ptr %7, align 8, !tbaa !22
  %54 = call i32 @ffurl_close(ptr noundef %53)
  %55 = load i32, ptr %8, align 4, !tbaa !21
  store i32 %55, ptr %3, align 4
  store i32 1, ptr %9, align 4
  br label %56

56:                                               ; preds = %50, %21, %14
  call void @llvm.lifetime.end.p0(i64 4, ptr %8) #10
  call void @llvm.lifetime.end.p0(i64 8, ptr %7) #10
  call void @llvm.lifetime.end.p0(i64 8, ptr %6) #10
  %57 = load i32, ptr %3, align 4
  ret i32 %57
}