; Function Attrs: nounwind uwtable
define i32 @ffurl_move(ptr noundef %0, ptr noundef %1) local_unnamed_addr #3 {
  %3 = alloca ptr, align 8
  %4 = alloca ptr, align 8
  %5 = alloca ptr, align 8
  %6 = alloca ptr, align 8
  %7 = alloca ptr, align 8
  call void @llvm.lifetime.start.p0(i64 8, ptr nonnull %6) #12
  call void @llvm.lifetime.start.p0(i64 8, ptr nonnull %7) #12
  %8 = call i32 @ffurl_alloc(ptr noundef nonnull %6, ptr noundef %0, i32 noundef 3, ptr noundef null)
  %9 = icmp slt i32 %8, 0
  br i1 %9, label %31, label %10

10:                                               ; preds = %2
  %11 = call i32 @ffurl_alloc(ptr noundef nonnull %7, ptr noundef %1, i32 noundef 2, ptr noundef null)
  %12 = icmp slt i32 %11, 0
  %13 = load ptr, ptr %6, align 8, !tbaa !41
  br i1 %12, label %14, label %16

14:                                               ; preds = %10
  call void @llvm.lifetime.start.p0(i64 8, ptr nonnull %5)
  store ptr %13, ptr %5, align 8, !tbaa !41
  %15 = call i32 @ffurl_closep(ptr noundef nonnull %5)
  call void @llvm.lifetime.end.p0(i64 8, ptr nonnull %5)
  br label %31

16:                                               ; preds = %10
  %17 = getelementptr inbounds nuw i8, ptr %13, i64 8
  %18 = load ptr, ptr %17, align 8, !tbaa !21
  %19 = load ptr, ptr %7, align 8, !tbaa !41
  %20 = getelementptr inbounds nuw i8, ptr %19, i64 8
  %21 = load ptr, ptr %20, align 8, !tbaa !21
  %22 = icmp eq ptr %18, %21
  br i1 %22, label %23, label %28

23:                                               ; preds = %16
  %24 = getelementptr inbounds nuw i8, ptr %18, i64 176
  %25 = load ptr, ptr %24, align 8, !tbaa !87
  %.not = icmp eq ptr %25, null
  br i1 %.not, label %28, label %26

26:                                               ; preds = %23
  %27 = tail call i32 %25(ptr noundef nonnull %13, ptr noundef nonnull %19) #12
  br label %28

28:                                               ; preds = %16, %23, %26
  %.0 = phi i32 [ %27, %26 ], [ -38, %23 ], [ -38, %16 ]
  call void @llvm.lifetime.start.p0(i64 8, ptr nonnull %4)
  store ptr %13, ptr %4, align 8, !tbaa !41
  %29 = call i32 @ffurl_closep(ptr noundef nonnull %4)
  call void @llvm.lifetime.end.p0(i64 8, ptr nonnull %4)
  call void @llvm.lifetime.start.p0(i64 8, ptr nonnull %3)
  store ptr %19, ptr %3, align 8, !tbaa !41
  %30 = call i32 @ffurl_closep(ptr noundef nonnull %3)
  call void @llvm.lifetime.end.p0(i64 8, ptr nonnull %3)
  br label %31

31:                                               ; preds = %2, %28, %14
  %.07 = phi i32 [ %11, %14 ], [ %.0, %28 ], [ %8, %2 ]
  call void @llvm.lifetime.end.p0(i64 8, ptr nonnull %7) #12
  call void @llvm.lifetime.end.p0(i64 8, ptr nonnull %6) #12
  ret i32 %.07
}